target datalayout = "e-m:e-p270:32:32-p271:32:32-p272:64:64-i64:64-i128:128-f80:128-n8:16:32:64-S128"
target triple = "x86_64-pc-linux-gnu"

%class.QString = type { ptr }
%class.EditMutualCorrsPlugin = type { %class.QObject, %class.EditTool, %class.QPoint, %class.QFont, ptr, ptr, %"class.std::vector.16", %"class.std::vector.20", %"class.std::vector.25", %"class.std::vector.30", %"class.std::vector.35", i32, %class.QString, %class.QString, %class.QString, %class.QString, %class.AlignSet }
%class.QObject = type { ptr, %class.QScopedPointer }
%class.QScopedPointer = type { ptr }
%class.EditTool = type { %class.MeshLabPluginLogger }
%class.MeshLabPluginLogger = type { ptr, ptr }
%class.QPoint = type { i32, i32 }
%class.QFont = type <{ %class.QExplicitlySharedDataPointer, i32, [4 x i8] }>
%class.QExplicitlySharedDataPointer = type { ptr }
%"class.std::vector.16" = type { %"struct.std::_Bvector_base" }
%"struct.std::_Bvector_base" = type { %"struct.std::_Bvector_base<std::allocator<bool>>::_Bvector_impl" }
%"struct.std::_Bvector_base<std::allocator<bool>>::_Bvector_impl" = type { %"struct.std::_Bvector_base<std::allocator<bool>>::_Bvector_impl_data" }
%"struct.std::_Bvector_base<std::allocator<bool>>::_Bvector_impl_data" = type { %"struct.std::_Bit_iterator", %"struct.std::_Bit_iterator", ptr }
%"struct.std::_Bit_iterator" = type { %"struct.std::_Bit_iterator_base.base", [4 x i8] }
%"struct.std::_Bit_iterator_base.base" = type <{ ptr, i32 }>
%"class.std::vector.20" = type { %"struct.std::_Vector_base.21" }
%"struct.std::_Vector_base.21" = type { %"struct.std::_Vector_base<QString, std::allocator<QString>>::_Vector_impl" }
%"struct.std::_Vector_base<QString, std::allocator<QString>>::_Vector_impl" = type { %"struct.std::_Vector_base<QString, std::allocator<QString>>::_Vector_impl_data" }
%"struct.std::_Vector_base<QString, std::allocator<QString>>::_Vector_impl_data" = type { ptr, ptr, ptr }
%"class.std::vector.25" = type { %"struct.std::_Vector_base.26" }
%"struct.std::_Vector_base.26" = type { %"struct.std::_Vector_base<vcg::Point3<float>, std::allocator<vcg::Point3<float>>>::_Vector_impl" }
%"struct.std::_Vector_base<vcg::Point3<float>, std::allocator<vcg::Point3<float>>>::_Vector_impl" = type { %"struct.std::_Vector_base<vcg::Point3<float>, std::allocator<vcg::Point3<float>>>::_Vector_impl_data" }
%"struct.std::_Vector_base<vcg::Point3<float>, std::allocator<vcg::Point3<float>>>::_Vector_impl_data" = type { ptr, ptr, ptr }
%"class.std::vector.30" = type { %"struct.std::_Vector_base.31" }
%"struct.std::_Vector_base.31" = type { %"struct.std::_Vector_base<vcg::Point2<float>, std::allocator<vcg::Point2<float>>>::_Vector_impl" }
%"struct.std::_Vector_base<vcg::Point2<float>, std::allocator<vcg::Point2<float>>>::_Vector_impl" = type { %"struct.std::_Vector_base<vcg::Point2<float>, std::allocator<vcg::Point2<float>>>::_Vector_impl_data" }
%"struct.std::_Vector_base<vcg::Point2<float>, std::allocator<vcg::Point2<float>>>::_Vector_impl_data" = type { ptr, ptr, ptr }
%"class.std::vector.35" = type { %"struct.std::_Vector_base.36" }
%"struct.std::_Vector_base.36" = type { %"struct.std::_Vector_base<double, std::allocator<double>>::_Vector_impl" }
%"struct.std::_Vector_base<double, std::allocator<double>>::_Vector_impl" = type { %"struct.std::_Vector_base<double, std::allocator<double>>::_Vector_impl_data" }
%"struct.std::_Vector_base<double, std::allocator<double>>::_Vector_impl_data" = type { ptr, ptr, ptr }
%class.AlignSet = type { i32, i32, ptr, ptr, double, %"class.vcg::Shot", %"class.vcg::Box3", %"class.std::vector.42", double, i32, i32, i32, i32, [6 x i32], i32, ptr, ptr }
%"class.vcg::Shot" = type { %"class.vcg::Camera", %"class.vcg::Shot<float>::ReferenceFrame" }
%"class.vcg::Camera" = type { float, %"class.vcg::Point2", %"class.vcg::Point2.40", %"class.vcg::Point2.40", %"class.vcg::Point2.40", %"struct.std::array", i32 }
%"class.vcg::Point2" = type { [2 x i32] }
%"class.vcg::Point2.40" = type { [2 x float] }
%"struct.std::array" = type { [4 x float] }
%"class.vcg::Shot<float>::ReferenceFrame" = type { %"class.vcg::Matrix44", %"class.vcg::Point3" }
%"class.vcg::Matrix44" = type { %"struct.std::array.41" }
%"struct.std::array.41" = type { [16 x float] }
%"class.vcg::Point3" = type { [3 x float] }
%"class.vcg::Box3" = type { %"class.vcg::Point3", %"class.vcg::Point3" }
%"class.std::vector.42" = type { %"struct.std::_Vector_base.43" }
%"struct.std::_Vector_base.43" = type { %"struct.std::_Vector_base<Correspondence, std::allocator<Correspondence>>::_Vector_impl" }
%"struct.std::_Vector_base<Correspondence, std::allocator<Correspondence>>::_Vector_impl" = type { %"struct.std::_Vector_base<Correspondence, std::allocator<Correspondence>>::_Vector_impl_data" }
%"struct.std::_Vector_base<Correspondence, std::allocator<Correspondence>>::_Vector_impl_data" = type { ptr, ptr, ptr }
%class.QMouseEvent = type <{ %class.QInputEvent, %class.QPointF, %class.QPointF, %class.QPointF, i32, %class.QFlags.185, i32, %class.QVector2D, [4 x i8] }>
%class.QInputEvent = type { %class.QEvent.base, %class.QFlags, i64 }
%class.QEvent.base = type <{ ptr, ptr, i16, i16 }>
%class.QFlags = type { i32 }
%class.QPointF = type { double, double }
%class.QFlags.185 = type { i32 }
%class.QVector2D = type { [2 x float] }

; Function Attrs: mustprogress nounwind uwtable
define linkonce_odr void @_ZN6QPointC2Eii(ptr noundef nonnull align 4 dereferenceable(8) %0, i32 noundef %1, i32 noundef %2) unnamed_addr #4 comdat align 2 {
  %4 = alloca ptr, align 8
  %5 = alloca i32, align 4
  %6 = alloca i32, align 4
  store ptr %0, ptr %4, align 8
  store i32 %1, ptr %5, align 4
  store i32 %2, ptr %6, align 4
  %7 = load ptr, ptr %4, align 8
  %8 = getelementptr inbounds %class.QPoint, ptr %7, i32 0, i32 0
  %9 = load i32, ptr %5, align 4
  store i32 %9, ptr %8, align 4
  %10 = getelementptr inbounds %class.QPoint, ptr %7, i32 0, i32 1
  %11 = load i32, ptr %6, align 4
  store i32 %11, ptr %10, align 4
  ret void
}

; Function Attrs: mustprogress nounwind uwtable
define linkonce_odr noundef i32 @_Z6qRoundd(double noundef %0) #4 comdat {
  %2 = alloca double, align 8
  store double %0, ptr %2, align 8
  %3 = load double, ptr %2, align 8
  %4 = fcmp oge double %3, 0.000000e+00
  br i1 %4, label %5, label %9

5:                                                ; preds = %1
  %6 = load double, ptr %2, align 8
  %7 = fadd double %6, 5.000000e-01
  %8 = fptosi double %7 to i32
  br label %22

9:                                                ; preds = %1
  %10 = load double, ptr %2, align 8
  %11 = load double, ptr %2, align 8
  %12 = fsub double %11, 1.000000e+00
  %13 = fptosi double %12 to i32
  %14 = sitofp i32 %13 to double
  %15 = fsub double %10, %14
  %16 = fadd double %15, 5.000000e-01
  %17 = fptosi double %16 to i32
  %18 = load double, ptr %2, align 8
  %19 = fsub double %18, 1.000000e+00
  %20 = fptosi double %19 to i32
  %21 = add nsw i32 %17, %20
  br label %22

22:                                               ; preds = %9, %5
  %23 = phi i32 [ %8, %5 ], [ %21, %9 ]
  ret i32 %23
}

; Function Attrs: mustprogress uwtable
define linkonce_odr i64 @_ZNK7QPointF7toPointEv(ptr noundef nonnull align 8 dereferenceable(16) %0) #5 comdat align 2 {
  %2 = alloca %class.QPoint, align 4
  %3 = alloca ptr, align 8
  store ptr %0, ptr %3, align 8
  %4 = load ptr, ptr %3, align 8
  %5 = getelementptr inbounds %class.QPointF, ptr %4, i32 0, i32 0
  %6 = load double, ptr %5, align 8
  %7 = call noundef i32 @_Z6qRoundd(double noundef %6)
  %8 = getelementptr inbounds %class.QPointF, ptr %4, i32 0, i32 1
  %9 = load double, ptr %8, align 8
  %10 = call noundef i32 @_Z6qRoundd(double noundef %9)
  call void @_ZN6QPointC2Eii(ptr noundef nonnull align 4 dereferenceable(8) %2, i32 noundef %7, i32 noundef %10)
  %11 = load i64, ptr %2, align 4
  ret i64 %11
}

; Function Attrs: mustprogress uwtable
define linkonce_odr i64 @_ZNK11QMouseEvent3posEv(ptr noundef nonnull align 8 dereferenceable(100) %0) #5 comdat align 2 {
  %2 = alloca %class.QPoint, align 4
  %3 = alloca ptr, align 8
  store ptr %0, ptr %3, align 8
  %4 = load ptr, ptr %3, align 8
  %5 = getelementptr inbounds %class.QMouseEvent, ptr %4, i32 0, i32 1
  %6 = call i64 @_ZNK7QPointF7toPointEv(ptr noundef nonnull align 8 dereferenceable(16) %5)
  store i64 %6, ptr %2, align 4
  %7 = load i64, ptr %2, align 4
  ret i64 %7
}

; Function Attrs: mustprogress uwtable
define void @_ZN21EditMutualCorrsPlugin17mouseReleaseEventEP11QMouseEventR9MeshModelP6GLArea(ptr noundef nonnull align 8 dereferenceable(536) %0, ptr noundef %1, ptr noundef nonnull align 8 dereferenceable(1288) %2, ptr noundef %3) unnamed_addr #5 align 2 {
  %5 = alloca ptr, align 8
  %6 = alloca ptr, align 8
  %7 = alloca ptr, align 8
  %8 = alloca ptr, align 8
  %9 = alloca %class.QPoint, align 4
  store ptr %0, ptr %5, align 8
  store ptr %1, ptr %6, align 8
  store ptr %2, ptr %7, align 8
  store ptr %3, ptr %8, align 8
  %10 = load ptr, ptr %5, align 8
  %11 = load ptr, ptr %8, align 8
  call void @_ZN7QWidget6updateEv(ptr noundef nonnull align 8 dereferenceable(48) %11)
  %12 = load ptr, ptr %6, align 8
  %13 = call i64 @_ZNK11QMouseEvent3posEv(ptr noundef nonnull align 8 dereferenceable(100) %12)
  store i64 %13, ptr %9, align 4
  %14 = getelementptr inbounds %class.EditMutualCorrsPlugin, ptr %10, i32 0, i32 2
  call void @llvm.memcpy.p0.p0.i64(ptr align 8 %14, ptr align 4 %9, i64 8, i1 false)
  ret void
}

; Function Attrs: uwtable
define void @_ZThn16_N21EditMutualCorrsPlugin17mouseReleaseEventEP11QMouseEventR9MeshModelP6GLArea(ptr noundef %0, ptr noundef %1, ptr noundef nonnull align 8 dereferenceable(1288) %2, ptr noundef %3) unnamed_addr #0 align 2 {
  %5 = alloca ptr, align 8
  %6 = alloca ptr, align 8
  %7 = alloca ptr, align 8
  %8 = alloca ptr, align 8
  store ptr %0, ptr %5, align 8
  store ptr %1, ptr %6, align 8
  store ptr %2, ptr %7, align 8
  store ptr %3, ptr %8, align 8
  %9 = load ptr, ptr %5, align 8
  %10 = getelementptr inbounds i8, ptr %9, i64 -16
  %11 = load ptr, ptr %6, align 8
  %12 = load ptr, ptr %7, align 8
  %13 = load ptr, ptr %8, align 8
  tail call void @_ZN21EditMutualCorrsPlugin17mouseReleaseEventEP11QMouseEventR9MeshModelP6GLArea(ptr noundef nonnull align 8 dereferenceable(536) %10, ptr noundef %11, ptr noundef nonnull align 8 dereferenceable(1288) %12, ptr noundef %13)
  ret void
}